target datalayout = "e-m:e-p270:32:32-p271:32:32-p272:64:64-i64:64-i128:128-f80:128-n8:16:32:64-S128"
target triple = "x86_64-pc-linux-gnu"

%"class.llvm::TargetRegisterClass" = type { ptr, ptr, ptr, %"struct.llvm::LaneBitmask", i8, i8, i8, i8, i8, ptr, ptr }
%"struct.llvm::LaneBitmask" = type { i64 }
%"class.llvm::Register" = type { i32 }
%"class.llvm::MVT" = type { i16 }

@_ZN4llvm7AArch6413GPR64RegClassE = external global %"class.llvm::TargetRegisterClass", align 8

; Function Attrs: mustprogress nounwind uwtable
define linkonce_odr hidden noundef i32 @_ZNK4llvm8RegistercvjEv(ptr noundef nonnull align 4 dereferenceable(4) %0) #0 comdat align 2 {
  %2 = alloca ptr, align 8
  store ptr %0, ptr %2, align 8
  %3 = load ptr, ptr %2, align 8
  %4 = getelementptr inbounds nuw %"class.llvm::Register", ptr %3, i32 0, i32 0
  %5 = load i32, ptr %4, align 4
  ret i32 %5
}

; Function Attrs: mustprogress nounwind uwtable
define internal noundef i32 @_ZN12_GLOBAL__N_115AArch64FastISel43fastEmit_AArch64ISD_THREAD_POINTER_MVT_i64_EN4llvm3MVTE(ptr noundef nonnull align 8 dereferenceable(192) %0, i16 %1) #0 align 2 {
  %3 = alloca i32, align 4
  %4 = alloca %"class.llvm::MVT", align 2
  %5 = alloca ptr, align 8
  %6 = alloca %"class.llvm::Register", align 4
  %7 = getelementptr inbounds nuw %"class.llvm::MVT", ptr %4, i32 0, i32 0
  store i16 %1, ptr %7, align 2
  store ptr %0, ptr %5, align 8
  %8 = load ptr, ptr %5, align 8
  %9 = getelementptr inbounds nuw %"class.llvm::MVT", ptr %4, i32 0, i32 0
  %10 = load i16, ptr %9, align 2
  %11 = zext i16 %10 to i32
  %12 = icmp ne i32 %11, 8
  br i1 %12, label %13, label %14

13:                                               ; preds = %2
  store i32 0, ptr %3, align 4
  br label %18

14:                                               ; preds = %2
  %15 = call i32 @_ZN4llvm8FastISel13fastEmitInst_EjPKNS_19TargetRegisterClassE(ptr noundef nonnull align 8 dereferenceable(176) %8, i32 noundef 974, ptr noundef @_ZN4llvm7AArch6413GPR64RegClassE)
  %16 = getelementptr inbounds nuw %"class.llvm::Register", ptr %6, i32 0, i32 0
  store i32 %15, ptr %16, align 4
  %17 = call noundef i32 @_ZNK4llvm8RegistercvjEv(ptr noundef nonnull align 4 dereferenceable(4) %6)
  store i32 %17, ptr %3, align 4
  br label %18

18:                                               ; preds = %14, %13
  %19 = load i32, ptr %3, align 4
  ret i32 %19
}

; Function Attrs: mustprogress nounwind uwtable
define internal noundef i32 @_ZN12_GLOBAL__N_115AArch64FastISel35fastEmit_AArch64ISD_THREAD_POINTER_EN4llvm3MVTES2_(ptr noundef nonnull align 8 dereferenceable(192) %0, i16 %1, i16 %2) #0 align 2 {
  %4 = alloca i32, align 4
  %5 = alloca %"class.llvm::MVT", align 2
  %6 = alloca %"class.llvm::MVT", align 2
  %7 = alloca ptr, align 8
  %8 = alloca %"class.llvm::MVT", align 2
  %9 = getelementptr inbounds nuw %"class.llvm::MVT", ptr %5, i32 0, i32 0
  store i16 %1, ptr %9, align 2
  %10 = getelementptr inbounds nuw %"class.llvm::MVT", ptr %6, i32 0, i32 0
  store i16 %2, ptr %10, align 2
  store ptr %0, ptr %7, align 8
  %11 = load ptr, ptr %7, align 8
  %12 = getelementptr inbounds nuw %"class.llvm::MVT", ptr %5, i32 0, i32 0
  %13 = load i16, ptr %12, align 2
  %14 = zext i16 %13 to i32
  switch i32 %14, label %19 [
    i32 8, label %15
  ]

15:                                               ; preds = %3
  call void @llvm.memcpy.p0.p0.i64(ptr align 2 %8, ptr align 2 %6, i64 2, i1 false)
  %16 = getelementptr inbounds nuw %"class.llvm::MVT", ptr %8, i32 0, i32 0
  %17 = load i16, ptr %16, align 2
  %18 = call noundef i32 @_ZN12_GLOBAL__N_115AArch64FastISel43fastEmit_AArch64ISD_THREAD_POINTER_MVT_i64_EN4llvm3MVTE(ptr noundef nonnull align 8 dereferenceable(192) %11, i16 %17)
  store i32 %18, ptr %4, align 4
  br label %20

19:                                               ; preds = %3
  store i32 0, ptr %4, align 4
  br label %20

20:                                               ; preds = %19, %15
  %21 = load i32, ptr %4, align 4
  ret i32 %21
}

; Function Attrs: mustprogress nounwind uwtable
define internal noundef i32 @_ZN12_GLOBAL__N_115AArch64FastISel9fastEmit_EN4llvm3MVTES2_j(ptr noundef nonnull align 8 dereferenceable(192) %0, i16 %1, i16 %2, i32 noundef %3) unnamed_addr #0 align 2 {
  %5 = alloca i32, align 4
  %6 = alloca %"class.llvm::MVT", align 2
  %7 = alloca %"class.llvm::MVT", align 2
  %8 = alloca ptr, align 8
  %9 = alloca i32, align 4
  %10 = alloca %"class.llvm::MVT", align 2
  %11 = alloca %"class.llvm::MVT", align 2
  %12 = getelementptr inbounds nuw %"class.llvm::MVT", ptr %6, i32 0, i32 0
  store i16 %1, ptr %12, align 2
  %13 = getelementptr inbounds nuw %"class.llvm::MVT", ptr %7, i32 0, i32 0
  store i16 %2, ptr %13, align 2
  store ptr %0, ptr %8, align 8
  store i32 %3, ptr %9, align 4
  %14 = load ptr, ptr %8, align 8
  %15 = load i32, ptr %9, align 4
  switch i32 %15, label %22 [
    i32 519, label %16
  ]

16:                                               ; preds = %4
  call void @llvm.memcpy.p0.p0.i64(ptr align 2 %10, ptr align 2 %6, i64 2, i1 false)
  call void @llvm.memcpy.p0.p0.i64(ptr align 2 %11, ptr align 2 %7, i64 2, i1 false)
  %17 = getelementptr inbounds nuw %"class.llvm::MVT", ptr %10, i32 0, i32 0
  %18 = load i16, ptr %17, align 2
  %19 = getelementptr inbounds nuw %"class.llvm::MVT", ptr %11, i32 0, i32 0
  %20 = load i16, ptr %19, align 2
  %21 = call noundef i32 @_ZN12_GLOBAL__N_115AArch64FastISel35fastEmit_AArch64ISD_THREAD_POINTER_EN4llvm3MVTES2_(ptr noundef nonnull align 8 dereferenceable(192) %14, i16 %18, i16 %20)
  store i32 %21, ptr %5, align 4
  br label %23

22:                                               ; preds = %4
  store i32 0, ptr %5, align 4
  br label %23

23:                                               ; preds = %22, %16
  %24 = load i32, ptr %5, align 4
  ret i32 %24
}