; Function Attrs: mustprogress nounwind uwtable
define internal noundef i32 @_ZN12_GLOBAL__N_115AArch64FastISel9fastEmit_EN4llvm3MVTES2_j(ptr noundef nonnull align 8 dereferenceable(192) %0, i16 %1, i16 %2, i32 noundef %3) unnamed_addr #0 align 2 {
  %cond = icmp eq i32 %3, 519
  br i1 %cond, label %5, label %_ZN12_GLOBAL__N_115AArch64FastISel35fastEmit_AArch64ISD_THREAD_POINTER_EN4llvm3MVTES2_.exit

5:                                                ; preds = %4
  %cond.i = icmp eq i16 %1, 8
  %.not.i.i = icmp eq i16 %2, 8
  %or.cond.i = select i1 %cond.i, i1 %.not.i.i, i1 false
  br i1 %or.cond.i, label %6, label %_ZN12_GLOBAL__N_115AArch64FastISel35fastEmit_AArch64ISD_THREAD_POINTER_EN4llvm3MVTES2_.exit

6:                                                ; preds = %5
  %7 = tail call i32 @_ZN4llvm8FastISel13fastEmitInst_EjPKNS_19TargetRegisterClassE(ptr noundef nonnull align 8 dereferenceable(192) %0, i32 noundef 974, ptr noundef nonnull @_ZN4llvm7AArch6413GPR64RegClassE) #21
  br label %_ZN12_GLOBAL__N_115AArch64FastISel35fastEmit_AArch64ISD_THREAD_POINTER_EN4llvm3MVTES2_.exit

_ZN12_GLOBAL__N_115AArch64FastISel35fastEmit_AArch64ISD_THREAD_POINTER_EN4llvm3MVTES2_.exit: ; preds = %6, %5, %4
  %.0 = phi i32 [ 0, %4 ], [ 0, %5 ], [ %7, %6 ]
  ret i32 %.0
}